target datalayout = "e-m:e-p270:32:32-p271:32:32-p272:64:64-i64:64-i128:128-f80:128-n8:16:32:64-S128"
target triple = "x86_64-unknown-linux-gnu"

%"class.QuantLib::NeumannBC" = type <{ %"class.QuantLib::BoundaryCondition", double, i32, [4 x i8] }>
%"class.QuantLib::BoundaryCondition" = type { ptr }

; Function Attrs: inlinehint mustprogress nounwind uwtable
define linkonce_odr void @_ZN8QuantLib17BoundaryConditionINS_19TridiagonalOperatorEEC2Ev(ptr noundef nonnull align 8 dereferenceable(8) %this) unnamed_addr #1 comdat align 2 {
entry:
  %this.addr = alloca ptr, align 8
  store ptr %this, ptr %this.addr, align 8, !tbaa !3
  %this1 = load ptr, ptr %this.addr, align 8
  store ptr getelementptr inbounds inrange(-16, 56) ({ [9 x ptr] }, ptr @_ZTVN8QuantLib17BoundaryConditionINS_19TridiagonalOperatorEEE, i32 0, i32 0, i32 2), ptr %this1, align 8, !tbaa !11
  ret void
}

; Function Attrs: mustprogress nounwind uwtable
define void @_ZN8QuantLib9NeumannBCC2EdNS_17BoundaryConditionINS_19TridiagonalOperatorEE4SideE(ptr noundef nonnull align 8 dereferenceable(20) %this, double noundef %value, i32 noundef %side) unnamed_addr #0 align 2 {
entry:
  %this.addr = alloca ptr, align 8
  %value.addr = alloca double, align 8
  %side.addr = alloca i32, align 4
  store ptr %this, ptr %this.addr, align 8, !tbaa !3
  store double %value, ptr %value.addr, align 8, !tbaa !7
  store i32 %side, ptr %side.addr, align 4, !tbaa !9
  %this1 = load ptr, ptr %this.addr, align 8
  call void @_ZN8QuantLib17BoundaryConditionINS_19TridiagonalOperatorEEC2Ev(ptr noundef nonnull align 8 dereferenceable(8) %this1) #13
  store ptr getelementptr inbounds inrange(-16, 56) ({ [9 x ptr] }, ptr @_ZTVN8QuantLib9NeumannBCE, i32 0, i32 0, i32 2), ptr %this1, align 8, !tbaa !11
  %value_ = getelementptr inbounds nuw %"class.QuantLib::NeumannBC", ptr %this1, i32 0, i32 1
  %0 = load double, ptr %value.addr, align 8, !tbaa !7
  store double %0, ptr %value_, align 8, !tbaa !13
  %side_ = getelementptr inbounds nuw %"class.QuantLib::NeumannBC", ptr %this1, i32 0, i32 2
  %1 = load i32, ptr %side.addr, align 4, !tbaa !9
  store i32 %1, ptr %side_, align 8, !tbaa !16
  ret void
}