; Function Attrs: mustprogress nofree norecurse nosync nounwind willreturn memory(argmem: write) uwtable
define void @_ZN8QuantLib9NeumannBCC2EdNS_17BoundaryConditionINS_19TridiagonalOperatorEE4SideE(ptr nocapture noundef nonnull writeonly align 8 dereferenceable(20) %this, double noundef %value, i32 noundef %side) unnamed_addr #0 align 2 {
entry:
  store ptr getelementptr inbounds inrange(-16, 56) (i8, ptr @_ZTVN8QuantLib9NeumannBCE, i64 16), ptr %this, align 8, !tbaa !3
  %value_ = getelementptr inbounds nuw i8, ptr %this, i64 8
  store double %value, ptr %value_, align 8, !tbaa !6
  %side_ = getelementptr inbounds nuw i8, ptr %this, i64 16
  store i32 %side, ptr %side_, align 8, !tbaa !12
  ret void
}